#include <math.h>
#include <stdio.h>
#include <stdlib.h>
#include <string.h>


int main()
{
	int n; scanf("%d",&n);
	char s[501]={' '}; scanf("%s",s);
	int len; len=strlen(s);
	struct substring{
		char ss[5];
		int count;
	}sub[500];
	int i;
	for(i=0;i<500;i++){
		memset(sub[i].ss,' ',sizeof(sub[i].ss));
		sub[i].count=0;
	}
	int entry=0;
	for(i=0;i<=len-n;i++){
		char bank[5]={' '};
		int curr;
		for(curr=0;curr<n;curr++){
			bank[curr]=s[curr+i];
		}
		int same=0;
		int k; for(k=0;k<entry;k++){
			if(strcmp(bank,sub[k].ss)==0){
				sub[k].count+=1;
				same=1;
				break;
			}
		}
		if(same==0){
			strcpy(sub[entry].ss,bank);
			sub[entry].count=1;
			entry++;
		}
	}
	int max=0;
	for(i=0;i<entry;i++){
		if(sub[i].count>max)max=sub[i].count;
	}
	if(max<2)printf("NO");
	else{
		printf("%d",max);
		for(i=0;i<entry;i++){
			if(sub[i].count==max)printf("\n%s",sub[i].ss);
		}
	}
	return 0;
}
